target datalayout = "e-m:e-p270:32:32-p271:32:32-p272:64:64-i64:64-i128:128-f80:128-n8:16:32:64-S128"
target triple = "x86_64-pc-linux-gnu"

%struct.TLSX = type { i32, ptr, i32, i8, ptr }

; Function Attrs: nounwind uwtable
define internal ptr @TLSX_New(i32 noundef %0, ptr noundef %1, ptr noundef %2) #0 {
  %4 = alloca i32, align 4
  %5 = alloca ptr, align 8
  %6 = alloca ptr, align 8
  %7 = alloca ptr, align 8
  store i32 %0, ptr %4, align 4, !tbaa !12
  store ptr %1, ptr %5, align 8, !tbaa !54
  store ptr %2, ptr %6, align 8, !tbaa !54
  call void @llvm.lifetime.start.p0(i64 8, ptr %7) #8
  %8 = call ptr @wolfSSL_Malloc(i64 noundef 32)
  store ptr %8, ptr %7, align 8, !tbaa !77
  %9 = load ptr, ptr %7, align 8, !tbaa !77
  %10 = icmp ne ptr %9, null
  br i1 %10, label %11, label %22

11:                                               ; preds = %3
  %12 = load i32, ptr %4, align 4, !tbaa !12
  %13 = load ptr, ptr %7, align 8, !tbaa !77
  %14 = getelementptr inbounds nuw %struct.TLSX, ptr %13, i32 0, i32 0
  store i32 %12, ptr %14, align 8, !tbaa !78
  %15 = load ptr, ptr %5, align 8, !tbaa !54
  %16 = load ptr, ptr %7, align 8, !tbaa !77
  %17 = getelementptr inbounds nuw %struct.TLSX, ptr %16, i32 0, i32 1
  store ptr %15, ptr %17, align 8, !tbaa !103
  %18 = load ptr, ptr %7, align 8, !tbaa !77
  %19 = getelementptr inbounds nuw %struct.TLSX, ptr %18, i32 0, i32 3
  store i8 0, ptr %19, align 4, !tbaa !104
  %20 = load ptr, ptr %7, align 8, !tbaa !77
  %21 = getelementptr inbounds nuw %struct.TLSX, ptr %20, i32 0, i32 4
  store ptr null, ptr %21, align 8, !tbaa !80
  br label %22

22:                                               ; preds = %11, %3
  %23 = load ptr, ptr %7, align 8, !tbaa !77
  call void @llvm.lifetime.end.p0(i64 8, ptr %7) #8
  ret ptr %23
}

; Function Attrs: nounwind uwtable
define i32 @TLSX_Push(ptr noundef %0, i32 noundef %1, ptr noundef %2, ptr noundef %3) #0 {
  %5 = alloca i32, align 4
  %6 = alloca ptr, align 8
  %7 = alloca i32, align 4
  %8 = alloca ptr, align 8
  %9 = alloca ptr, align 8
  %10 = alloca ptr, align 8
  %11 = alloca i32, align 4
  %12 = alloca ptr, align 8
  store ptr %0, ptr %6, align 8, !tbaa !75
  store i32 %1, ptr %7, align 4, !tbaa !12
  store ptr %2, ptr %8, align 8, !tbaa !54
  store ptr %3, ptr %9, align 8, !tbaa !54
  call void @llvm.lifetime.start.p0(i64 8, ptr %10) #8
  %13 = load i32, ptr %7, align 4, !tbaa !12
  %14 = load ptr, ptr %8, align 8, !tbaa !54
  %15 = load ptr, ptr %9, align 8, !tbaa !54
  %16 = call ptr @TLSX_New(i32 noundef %13, ptr noundef %14, ptr noundef %15)
  store ptr %16, ptr %10, align 8, !tbaa !77
  %17 = load ptr, ptr %10, align 8, !tbaa !77
  %18 = icmp eq ptr %17, null
  br i1 %18, label %19, label %20

19:                                               ; preds = %4
  store i32 -125, ptr %5, align 4
  store i32 1, ptr %11, align 4
  br label %60

20:                                               ; preds = %4
  %21 = load ptr, ptr %6, align 8, !tbaa !75
  %22 = load ptr, ptr %21, align 8, !tbaa !77
  %23 = load ptr, ptr %10, align 8, !tbaa !77
  %24 = getelementptr inbounds nuw %struct.TLSX, ptr %23, i32 0, i32 4
  store ptr %22, ptr %24, align 8, !tbaa !80
  %25 = load ptr, ptr %10, align 8, !tbaa !77
  %26 = load ptr, ptr %6, align 8, !tbaa !75
  store ptr %25, ptr %26, align 8, !tbaa !77
  br label %27

27:                                               ; preds = %54, %20
  %28 = load ptr, ptr %10, align 8, !tbaa !77
  %29 = getelementptr inbounds nuw %struct.TLSX, ptr %28, i32 0, i32 4
  %30 = load ptr, ptr %29, align 8, !tbaa !80
  %31 = icmp ne ptr %30, null
  br i1 %31, label %32, label %53

32:                                               ; preds = %27
  %33 = load ptr, ptr %10, align 8, !tbaa !77
  %34 = getelementptr inbounds nuw %struct.TLSX, ptr %33, i32 0, i32 4
  %35 = load ptr, ptr %34, align 8, !tbaa !80
  %36 = getelementptr inbounds nuw %struct.TLSX, ptr %35, i32 0, i32 0
  %37 = load i32, ptr %36, align 8, !tbaa !78
  %38 = load i32, ptr %7, align 4, !tbaa !12
  %39 = icmp eq i32 %37, %38
  br i1 %39, label %40, label %53

40:                                               ; preds = %32
  call void @llvm.lifetime.start.p0(i64 8, ptr %12) #8
  %41 = load ptr, ptr %10, align 8, !tbaa !77
  %42 = getelementptr inbounds nuw %struct.TLSX, ptr %41, i32 0, i32 4
  %43 = load ptr, ptr %42, align 8, !tbaa !80
  store ptr %43, ptr %12, align 8, !tbaa !77
  %44 = load ptr, ptr %12, align 8, !tbaa !77
  %45 = getelementptr inbounds nuw %struct.TLSX, ptr %44, i32 0, i32 4
  %46 = load ptr, ptr %45, align 8, !tbaa !80
  %47 = load ptr, ptr %10, align 8, !tbaa !77
  %48 = getelementptr inbounds nuw %struct.TLSX, ptr %47, i32 0, i32 4
  store ptr %46, ptr %48, align 8, !tbaa !80
  %49 = load ptr, ptr %12, align 8, !tbaa !77
  %50 = getelementptr inbounds nuw %struct.TLSX, ptr %49, i32 0, i32 4
  store ptr null, ptr %50, align 8, !tbaa !80
  %51 = load ptr, ptr %12, align 8, !tbaa !77
  %52 = load ptr, ptr %9, align 8, !tbaa !54
  call void @TLSX_FreeAll(ptr noundef %51, ptr noundef %52)
  store i32 2, ptr %11, align 4
  call void @llvm.lifetime.end.p0(i64 8, ptr %12) #8
  br label %59

53:                                               ; preds = %32, %27
  br label %54

54:                                               ; preds = %53
  %55 = load ptr, ptr %10, align 8, !tbaa !77
  %56 = getelementptr inbounds nuw %struct.TLSX, ptr %55, i32 0, i32 4
  %57 = load ptr, ptr %56, align 8, !tbaa !80
  store ptr %57, ptr %10, align 8, !tbaa !77
  %58 = icmp ne ptr %57, null
  br i1 %58, label %27, label %59, !llvm.loop !106

59:                                               ; preds = %54, %40
  store i32 0, ptr %5, align 4
  store i32 1, ptr %11, align 4
  br label %60

60:                                               ; preds = %59, %19
  call void @llvm.lifetime.end.p0(i64 8, ptr %10) #8
  %61 = load i32, ptr %5, align 4
  ret i32 %61
}