; Function Attrs: nounwind uwtable
define range(i32 -125, 1) i32 @TLSX_Push(ptr noundef captures(none) %0, i32 noundef %1, ptr noundef %2, ptr readnone captures(none) %3) local_unnamed_addr #0 {
  %5 = tail call ptr @wolfSSL_Malloc(i64 noundef 32) #17
  %.not.i = icmp eq ptr %5, null
  br i1 %.not.i, label %TLSX_New.exit.thread, label %6

6:                                                ; preds = %4
  store i32 %1, ptr %5, align 8, !tbaa !60
  %7 = getelementptr inbounds nuw i8, ptr %5, i64 8
  store ptr %2, ptr %7, align 8, !tbaa !82
  %8 = getelementptr inbounds nuw i8, ptr %5, i64 20
  store i8 0, ptr %8, align 4, !tbaa !83
  %9 = getelementptr inbounds nuw i8, ptr %5, i64 24
  store ptr null, ptr %9, align 8, !tbaa !63
  %10 = load ptr, ptr %0, align 8, !tbaa !59
  store ptr %10, ptr %9, align 8, !tbaa !63
  store ptr %5, ptr %0, align 8, !tbaa !59
  br label %11

11:                                               ; preds = %14, %6
  %.018 = phi ptr [ %5, %6 ], [ %13, %14 ]
  %12 = getelementptr inbounds nuw i8, ptr %.018, i64 24
  %13 = load ptr, ptr %12, align 8, !tbaa !63
  %.not = icmp eq ptr %13, null
  br i1 %.not, label %TLSX_New.exit.thread, label %14

14:                                               ; preds = %11
  %15 = load i32, ptr %13, align 8, !tbaa !60
  %16 = icmp eq i32 %15, %1
  br i1 %16, label %17, label %11, !llvm.loop !99

17:                                               ; preds = %14
  %18 = getelementptr inbounds nuw i8, ptr %.018, i64 24
  %19 = getelementptr inbounds nuw i8, ptr %13, i64 24
  %20 = load ptr, ptr %19, align 8, !tbaa !63
  store ptr %20, ptr %18, align 8, !tbaa !63
  store ptr null, ptr %19, align 8, !tbaa !63
  tail call void @TLSX_FreeAll(ptr noundef nonnull %13, ptr poison)
  br label %TLSX_New.exit.thread

TLSX_New.exit.thread:                             ; preds = %11, %4, %17
  %.0 = phi i32 [ 0, %17 ], [ -125, %4 ], [ 0, %11 ]
  ret i32 %.0
}